target datalayout = "e-m:e-p270:32:32-p271:32:32-p272:64:64-i64:64-i128:128-f80:128-n8:16:32:64-S128"
target triple = "x86_64-pc-linux-gnu"

; Function Attrs: nounwind uwtable
define dso_local i32 @fdt_setprop(ptr noundef %0, i32 noundef %1, ptr noundef %2, ptr noundef %3, i32 noundef %4) #0 {
  %6 = alloca i32, align 4
  %7 = alloca ptr, align 8
  %8 = alloca i32, align 4
  %9 = alloca ptr, align 8
  %10 = alloca ptr, align 8
  %11 = alloca i32, align 4
  %12 = alloca ptr, align 8
  %13 = alloca i32, align 4
  %14 = alloca i32, align 4
  store ptr %0, ptr %7, align 8
  store i32 %1, ptr %8, align 4
  store ptr %2, ptr %9, align 8
  store ptr %3, ptr %10, align 8
  store i32 %4, ptr %11, align 4
  call void @llvm.lifetime.start.p0(i64 8, ptr %12) #7
  store ptr null, ptr %12, align 8, !annotation !4
  call void @llvm.lifetime.start.p0(i64 4, ptr %13) #7
  store i32 0, ptr %13, align 4, !annotation !4
  %15 = load ptr, ptr %7, align 8
  %16 = load i32, ptr %8, align 4
  %17 = load ptr, ptr %9, align 8
  %18 = load i32, ptr %11, align 4
  %19 = call i32 @fdt_setprop_placeholder(ptr noundef %15, i32 noundef %16, ptr noundef %17, i32 noundef %18, ptr noundef %12)
  store i32 %19, ptr %13, align 4
  %20 = load i32, ptr %13, align 4
  %21 = icmp ne i32 %20, 0
  br i1 %21, label %22, label %24

22:                                               ; preds = %5
  %23 = load i32, ptr %13, align 4
  store i32 %23, ptr %6, align 4
  store i32 1, ptr %14, align 4
  br label %33

24:                                               ; preds = %5
  %25 = load i32, ptr %11, align 4
  %26 = icmp ne i32 %25, 0
  br i1 %26, label %27, label %32

27:                                               ; preds = %24
  %28 = load ptr, ptr %12, align 8
  %29 = load ptr, ptr %10, align 8
  %30 = load i32, ptr %11, align 4
  %31 = sext i32 %30 to i64
  call void @llvm.memcpy.p0.p0.i64(ptr align 1 %28, ptr align 1 %29, i64 %31, i1 false)
  br label %32

32:                                               ; preds = %27, %24
  store i32 0, ptr %6, align 4
  store i32 1, ptr %14, align 4
  br label %33

33:                                               ; preds = %32, %22
  call void @llvm.lifetime.end.p0(i64 4, ptr %13) #7
  call void @llvm.lifetime.end.p0(i64 8, ptr %12) #7
  %34 = load i32, ptr %6, align 4
  ret i32 %34
}